target datalayout = "e-m:e-p270:32:32-p271:32:32-p272:64:64-i64:64-i128:128-f80:128-n8:16:32:64-S128"
target triple = "x86_64-pc-linux-gnu"

%struct.AVFrameSideData = type { i32, ptr, i64, ptr, ptr }

; Function Attrs: nounwind uwtable
define ptr @av_downmix_info_update_side_data(ptr noundef %0) #0 {
  %2 = alloca ptr, align 8
  %3 = alloca ptr, align 8
  %4 = alloca ptr, align 8
  %5 = alloca i32, align 4
  store ptr %0, ptr %3, align 8, !tbaa !4
  call void @llvm.lifetime.start.p0(i64 8, ptr %4) #4
  %6 = load ptr, ptr %3, align 8, !tbaa !4
  %7 = call ptr @av_frame_get_side_data(ptr noundef %6, i32 noundef 4)
  store ptr %7, ptr %4, align 8, !tbaa !9
  %8 = load ptr, ptr %4, align 8, !tbaa !9
  %9 = icmp ne ptr %8, null
  br i1 %9, label %20, label %10

10:                                               ; preds = %1
  %11 = load ptr, ptr %3, align 8, !tbaa !4
  %12 = call ptr @av_frame_new_side_data(ptr noundef %11, i32 noundef 4, i64 noundef 48)
  store ptr %12, ptr %4, align 8, !tbaa !9
  %13 = load ptr, ptr %4, align 8, !tbaa !9
  %14 = icmp ne ptr %13, null
  br i1 %14, label %15, label %19

15:                                               ; preds = %10
  %16 = load ptr, ptr %4, align 8, !tbaa !9
  %17 = getelementptr inbounds nuw %struct.AVFrameSideData, ptr %16, i32 0, i32 1
  %18 = load ptr, ptr %17, align 8, !tbaa !11
  call void @llvm.memset.p0.i64(ptr align 1 %18, i8 0, i64 48, i1 false)
  br label %19

19:                                               ; preds = %15, %10
  br label %20

20:                                               ; preds = %19, %1
  %21 = load ptr, ptr %4, align 8, !tbaa !9
  %22 = icmp ne ptr %21, null
  br i1 %22, label %24, label %23

23:                                               ; preds = %20
  store ptr null, ptr %2, align 8
  store i32 1, ptr %5, align 4
  br label %28

24:                                               ; preds = %20
  %25 = load ptr, ptr %4, align 8, !tbaa !9
  %26 = getelementptr inbounds nuw %struct.AVFrameSideData, ptr %25, i32 0, i32 1
  %27 = load ptr, ptr %26, align 8, !tbaa !11
  store ptr %27, ptr %2, align 8
  store i32 1, ptr %5, align 4
  br label %28

28:                                               ; preds = %24, %23
  call void @llvm.lifetime.end.p0(i64 8, ptr %4) #4
  %29 = load ptr, ptr %2, align 8
  ret ptr %29
}

; Function Attrs: nocallback nofree nosync nounwind willreturn memory(argmem: readwrite)
declare void @llvm.lifetime.start.p0(i64 immarg, ptr captures(none)) #1

declare ptr @av_frame_get_side_data(ptr noundef, i32 noundef) #2

declare ptr @av_frame_new_side_data(ptr noundef, i32 noundef, i64 noundef) #2

; Function Attrs: nocallback nofree nounwind willreturn memory(argmem: write)
declare void @llvm.memset.p0.i64(ptr writeonly captures(none), i8, i64, i1 immarg) #3

; Function Attrs: nocallback nofree nosync nounwind willreturn memory(argmem: readwrite)
declare void @llvm.lifetime.end.p0(i64 immarg, ptr captures(none)) #1


!llvm.module.flags = !{!0, !1, !2, !3}

!0 = !{i32 1, !"wchar_size", i32 4}
!1 = !{i32 8, !"PIC Level", i32 2}
!2 = !{i32 7, !"uwtable", i32 2}
!3 = !{i32 1, !"override-stack-alignment", i32 16}
!4 = !{!5, !5, i64 0}
!5 = !{!"p1 _ZTS7AVFrame", !6, i64 0}
!6 = !{!"any pointer", !7, i64 0}
!7 = !{!"omnipotent char", !8, i64 0}
!8 = !{!"Simple C/C++ TBAA"}
!9 = !{!10, !10, i64 0}
!10 = !{!"p1 _ZTS15AVFrameSideData", !6, i64 0}
!11 = !{!12, !14, i64 8}
!12 = !{!"AVFrameSideData", !13, i64 0, !14, i64 8, !15, i64 16, !16, i64 24, !17, i64 32}
!13 = !{!"int", !7, i64 0}
!14 = !{!"p1 omnipotent char", !6, i64 0}
!15 = !{!"long", !7, i64 0}
!16 = !{!"p1 _ZTS12AVDictionary", !6, i64 0}
!17 = !{!"p1 _ZTS11AVBufferRef", !6, i64 0}
